target datalayout = "e-m:e-p270:32:32-p271:32:32-p272:64:64-i64:64-i128:128-f80:128-n8:16:32:64-S128"
target triple = "x86_64-pc-linux-gnu"

%struct.H5F_shared_t = type { ptr, ptr, ptr, i8, i32, i32, %struct.H5F_mtab_t, ptr, i8, i8, i64, i32, i32, i64, i64, ptr, ptr, %struct.H5AC_cache_config_t, %struct.H5AC_cache_image_config_t, i8, i8, ptr, i64, i32, i8, i64, i64, double, i64, i64, i64, i32, i32, i32, i8, i32, ptr, ptr, ptr, ptr, i8, i8, i8, i64, ptr, ptr, i32, i64, i8, i32, i8, i64, i8, [13 x i32], [13 x i64], [13 x ptr], i8, i64, i64, [7 x i32], [7 x i32], %struct.H5F_blk_aggr_t, %struct.H5F_blk_aggr_t, i64, i64, %struct.H5F_meta_accum_t, i32, i32, [30 x ptr], %struct.H5F_object_flush_t, i8, ptr }
%struct.H5F_mtab_t = type { i32, i32, ptr }
%struct.H5AC_cache_config_t = type { i32, i8, i8, i8, [1025 x i8], i8, i8, i64, double, i64, i64, i64, i32, double, double, i8, i64, i32, double, double, i32, double, double, i8, i64, i32, i8, double, i64, i32 }
%struct.H5AC_cache_image_config_t = type { i32, i8, i8, i32 }
%struct.H5F_blk_aggr_t = type { i64, i64, i64, i64, i64 }
%struct.H5F_meta_accum_t = type { ptr, i64, i64, i64, i64, i64, i8 }
%struct.H5F_object_flush_t = type { ptr, ptr }

@H5F_init_g = external global i8, align 1
@H5_libterm_g = external global i8, align 1
@.str = private unnamed_addr constant [102 x i8] c"generated/home/dtcxzyw/WorkSpace/Projects/compilers/llvm-opt-benchmark/bench/hdf5/hdf5/src/H5Faccum.c\00", align 1
@H5E_IO_g = external global i64, align 8
@H5E_WRITEERROR_g = external global i64, align 8
@.str.4 = private unnamed_addr constant [18 x i8] c"file write failed\00", align 1
@__func__.H5F__accum_flush = private unnamed_addr constant [17 x i8] c"H5F__accum_flush\00", align 1
@__func__.H5F__accum_reset = private unnamed_addr constant [17 x i8] c"H5F__accum_reset\00", align 1
@H5E_FILE_g = external global i64, align 8
@H5E_CANTFLUSH_g = external global i64, align 8
@.str.6 = private unnamed_addr constant [33 x i8] c"can't flush metadata accumulator\00", align 1
@H5_meta_accum_blk_free_list = internal global { i8, [3 x i8], i32, i32, [4 x i8], i64, ptr, ptr } { i8 0, [3 x i8] zeroinitializer, i32 0, i32 0, [4 x i8] zeroinitializer, i64 0, ptr @.str.7, ptr null }, align 8

; Function Attrs: nounwind uwtable
define i32 @H5F__accum_flush(ptr noundef %0) #0 {
  %2 = alloca i32, align 4
  %3 = alloca ptr, align 8
  %4 = alloca i32, align 4
  %5 = alloca i8, align 1
  %6 = alloca ptr, align 8
  %7 = alloca i32, align 4
  store ptr %0, ptr %3, align 8, !tbaa !3
  call void @llvm.lifetime.start.p0(i64 4, ptr %4) #7
  store i32 0, ptr %4, align 4, !tbaa !8
  call void @llvm.lifetime.start.p0(i64 1, ptr %5) #7
  store i8 0, ptr %5, align 1, !tbaa !13
  %8 = load i8, ptr @H5F_init_g, align 1, !tbaa !13, !range !15, !noundef !16
  %9 = trunc i8 %8 to i1
  br i1 %9, label %14, label %10

10:                                               ; preds = %1
  %11 = load i8, ptr @H5_libterm_g, align 1, !tbaa !13, !range !15, !noundef !16
  %12 = trunc i8 %11 to i1
  %13 = xor i1 %12, true
  br label %14

14:                                               ; preds = %10, %1
  %15 = phi i1 [ true, %1 ], [ %13, %10 ]
  %16 = xor i1 %15, true
  %17 = xor i1 %16, true
  %18 = zext i1 %17 to i32
  %19 = sext i32 %18 to i64
  %20 = call i64 @llvm.expect.i64(i64 %19, i64 1)
  %21 = icmp ne i64 %20, 0
  br i1 %21, label %22, label %91

22:                                               ; preds = %14
  %23 = load ptr, ptr %3, align 8, !tbaa !3
  %24 = getelementptr inbounds nuw %struct.H5F_shared_t, ptr %23, i32 0, i32 13
  %25 = load i64, ptr %24, align 8, !tbaa !40
  %26 = and i64 %25, 6
  %27 = icmp ne i64 %26, 0
  br i1 %27, label %28, label %89

28:                                               ; preds = %22
  %29 = load ptr, ptr %3, align 8, !tbaa !3
  %30 = getelementptr inbounds nuw %struct.H5F_shared_t, ptr %29, i32 0, i32 65
  %31 = getelementptr inbounds nuw %struct.H5F_meta_accum_t, ptr %30, i32 0, i32 6
  %32 = load i8, ptr %31, align 8, !tbaa !57, !range !15, !noundef !16
  %33 = trunc i8 %32 to i1
  br i1 %33, label %34, label %89

34:                                               ; preds = %28
  call void @llvm.lifetime.start.p0(i64 8, ptr %6) #7
  %35 = load ptr, ptr %3, align 8, !tbaa !3
  %36 = getelementptr inbounds nuw %struct.H5F_shared_t, ptr %35, i32 0, i32 0
  %37 = load ptr, ptr %36, align 8, !tbaa !17
  store ptr %37, ptr %6, align 8, !tbaa !39
  %38 = load ptr, ptr %6, align 8, !tbaa !39
  %39 = load ptr, ptr %3, align 8, !tbaa !3
  %40 = getelementptr inbounds nuw %struct.H5F_shared_t, ptr %39, i32 0, i32 65
  %41 = getelementptr inbounds nuw %struct.H5F_meta_accum_t, ptr %40, i32 0, i32 1
  %42 = load i64, ptr %41, align 8, !tbaa !56
  %43 = load ptr, ptr %3, align 8, !tbaa !3
  %44 = getelementptr inbounds nuw %struct.H5F_shared_t, ptr %43, i32 0, i32 65
  %45 = getelementptr inbounds nuw %struct.H5F_meta_accum_t, ptr %44, i32 0, i32 4
  %46 = load i64, ptr %45, align 8, !tbaa !59
  %47 = add i64 %42, %46
  %48 = load ptr, ptr %3, align 8, !tbaa !3
  %49 = getelementptr inbounds nuw %struct.H5F_shared_t, ptr %48, i32 0, i32 65
  %50 = getelementptr inbounds nuw %struct.H5F_meta_accum_t, ptr %49, i32 0, i32 5
  %51 = load i64, ptr %50, align 8, !tbaa !58
  %52 = load ptr, ptr %3, align 8, !tbaa !3
  %53 = getelementptr inbounds nuw %struct.H5F_shared_t, ptr %52, i32 0, i32 65
  %54 = getelementptr inbounds nuw %struct.H5F_meta_accum_t, ptr %53, i32 0, i32 0
  %55 = load ptr, ptr %54, align 8, !tbaa !53
  %56 = load ptr, ptr %3, align 8, !tbaa !3
  %57 = getelementptr inbounds nuw %struct.H5F_shared_t, ptr %56, i32 0, i32 65
  %58 = getelementptr inbounds nuw %struct.H5F_meta_accum_t, ptr %57, i32 0, i32 4
  %59 = load i64, ptr %58, align 8, !tbaa !59
  %60 = getelementptr inbounds nuw i8, ptr %55, i64 %59
  %61 = call i32 @H5FD_write(ptr noundef %38, i32 noundef 0, i64 noundef %47, i64 noundef %51, ptr noundef %60)
  %62 = icmp slt i32 %61, 0
  br i1 %62, label %63, label %82

63:                                               ; preds = %34
  br label %64

64:                                               ; preds = %63
  br label %65

65:                                               ; preds = %64
  br label %66

66:                                               ; preds = %65
  %67 = load i64, ptr @H5E_IO_g, align 8, !tbaa !10
  %68 = load i64, ptr @H5E_WRITEERROR_g, align 8, !tbaa !10
  %69 = call i32 (ptr, ptr, i32, i64, i64, ptr, ...) @H5E_printf_stack(ptr noundef @.str, ptr noundef @__func__.H5F__accum_flush, i32 noundef 1022, i64 noundef %67, i64 noundef %68, ptr noundef @.str.4)
  br label %70

70:                                               ; preds = %66
  br label %71

71:                                               ; preds = %70
  store i8 1, ptr %5, align 1, !tbaa !13
  %72 = load i8, ptr %5, align 1, !tbaa !13, !range !15, !noundef !16
  %73 = trunc i8 %72 to i1
  %74 = zext i1 %73 to i8
  store i8 %74, ptr %5, align 1, !tbaa !13
  br label %75

75:                                               ; preds = %71
  br label %76

76:                                               ; preds = %75
  br label %77

77:                                               ; preds = %76
  store i32 -1, ptr %4, align 4, !tbaa !8
  store i32 10, ptr %7, align 4
  br label %86

78:                                               ; No predecessors!
  br label %79

79:                                               ; preds = %78
  br label %80

80:                                               ; preds = %79
  br label %81

81:                                               ; preds = %80
  br label %82

82:                                               ; preds = %81, %34
  %83 = load ptr, ptr %3, align 8, !tbaa !3
  %84 = getelementptr inbounds nuw %struct.H5F_shared_t, ptr %83, i32 0, i32 65
  %85 = getelementptr inbounds nuw %struct.H5F_meta_accum_t, ptr %84, i32 0, i32 6
  store i8 0, ptr %85, align 8, !tbaa !57
  store i32 0, ptr %7, align 4
  br label %86

86:                                               ; preds = %77, %82
  call void @llvm.lifetime.end.p0(i64 8, ptr %6) #7
  %87 = load i32, ptr %7, align 4
  switch i32 %87, label %93 [
    i32 0, label %88
    i32 10, label %90
  ]

88:                                               ; preds = %86
  br label %89

89:                                               ; preds = %88, %28, %22
  br label %90

90:                                               ; preds = %89, %86
  br label %91

91:                                               ; preds = %90, %14
  %92 = load i32, ptr %4, align 4, !tbaa !8
  store i32 %92, ptr %2, align 4
  store i32 1, ptr %7, align 4
  br label %93

93:                                               ; preds = %91, %86
  call void @llvm.lifetime.end.p0(i64 1, ptr %5) #7
  call void @llvm.lifetime.end.p0(i64 4, ptr %4) #7
  %94 = load i32, ptr %2, align 4
  ret i32 %94
}

; Function Attrs: nounwind uwtable
define i32 @H5F__accum_reset(ptr noundef %0, i1 noundef zeroext %1, i1 noundef zeroext %2) #0 {
  %4 = alloca ptr, align 8
  %5 = alloca i8, align 1
  %6 = alloca i8, align 1
  %7 = alloca i32, align 4
  %8 = alloca i8, align 1
  store ptr %0, ptr %4, align 8, !tbaa !3
  %9 = zext i1 %1 to i8
  store i8 %9, ptr %5, align 1, !tbaa !13
  %10 = zext i1 %2 to i8
  store i8 %10, ptr %6, align 1, !tbaa !13
  call void @llvm.lifetime.start.p0(i64 4, ptr %7) #7
  store i32 0, ptr %7, align 4, !tbaa !8
  call void @llvm.lifetime.start.p0(i64 1, ptr %8) #7
  store i8 0, ptr %8, align 1, !tbaa !13
  %11 = load i8, ptr @H5F_init_g, align 1, !tbaa !13, !range !15, !noundef !16
  %12 = trunc i8 %11 to i1
  br i1 %12, label %17, label %13

13:                                               ; preds = %3
  %14 = load i8, ptr @H5_libterm_g, align 1, !tbaa !13, !range !15, !noundef !16
  %15 = trunc i8 %14 to i1
  %16 = xor i1 %15, true
  br label %17

17:                                               ; preds = %13, %3
  %18 = phi i1 [ true, %3 ], [ %16, %13 ]
  %19 = xor i1 %18, true
  %20 = xor i1 %19, true
  %21 = zext i1 %20 to i32
  %22 = sext i32 %21 to i64
  %23 = call i64 @llvm.expect.i64(i64 %22, i64 1)
  %24 = icmp ne i64 %23, 0
  br i1 %24, label %25, label %95

25:                                               ; preds = %17
  %26 = load i8, ptr %5, align 1, !tbaa !13, !range !15, !noundef !16
  %27 = trunc i8 %26 to i1
  br i1 %27, label %28, label %56

28:                                               ; preds = %25
  %29 = load ptr, ptr %4, align 8, !tbaa !3
  %30 = call i32 @H5F__accum_flush(ptr noundef %29)
  %31 = icmp slt i32 %30, 0
  br i1 %31, label %32, label %55

32:                                               ; preds = %28
  br label %33

33:                                               ; preds = %32
  br label %34

34:                                               ; preds = %33
  br label %35

35:                                               ; preds = %34
  %36 = load i64, ptr @H5E_FILE_g, align 8, !tbaa !10
  %37 = load i64, ptr @H5E_CANTFLUSH_g, align 8, !tbaa !10
  %38 = call i32 (ptr, ptr, i32, i64, i64, ptr, ...) @H5E_printf_stack(ptr noundef @.str, ptr noundef @__func__.H5F__accum_reset, i32 noundef 1054, i64 noundef %36, i64 noundef %37, ptr noundef @.str.6)
  br label %39

39:                                               ; preds = %35
  br label %40

40:                                               ; preds = %39
  store i8 1, ptr %8, align 1, !tbaa !13
  %41 = load i8, ptr %8, align 1, !tbaa !13, !range !15, !noundef !16
  %42 = trunc i8 %41 to i1
  %43 = zext i1 %42 to i8
  store i8 %43, ptr %8, align 1, !tbaa !13
  br label %44

44:                                               ; preds = %40
  br label %45

45:                                               ; preds = %44
  store i32 -1, ptr %7, align 4, !tbaa !8
  br label %46

46:                                               ; preds = %45
  br label %47

47:                                               ; preds = %46
  %48 = load i8, ptr %6, align 1, !tbaa !13, !range !15, !noundef !16
  %49 = trunc i8 %48 to i1
  br i1 %49, label %54, label %50

50:                                               ; preds = %47
  br label %51

51:                                               ; preds = %50
  store i32 -1, ptr %7, align 4, !tbaa !8
  br label %94

52:                                               ; No predecessors!
  br label %53

53:                                               ; preds = %52
  br label %54

54:                                               ; preds = %53, %47
  br label %55

55:                                               ; preds = %54, %28
  br label %56

56:                                               ; preds = %55, %25
  %57 = load ptr, ptr %4, align 8, !tbaa !3
  %58 = getelementptr inbounds nuw %struct.H5F_shared_t, ptr %57, i32 0, i32 13
  %59 = load i64, ptr %58, align 8, !tbaa !40
  %60 = and i64 %59, 6
  %61 = icmp ne i64 %60, 0
  br i1 %61, label %62, label %93

62:                                               ; preds = %56
  %63 = load ptr, ptr %4, align 8, !tbaa !3
  %64 = getelementptr inbounds nuw %struct.H5F_shared_t, ptr %63, i32 0, i32 65
  %65 = getelementptr inbounds nuw %struct.H5F_meta_accum_t, ptr %64, i32 0, i32 0
  %66 = load ptr, ptr %65, align 8, !tbaa !53
  %67 = icmp ne ptr %66, null
  br i1 %67, label %68, label %77

68:                                               ; preds = %62
  %69 = load ptr, ptr %4, align 8, !tbaa !3
  %70 = getelementptr inbounds nuw %struct.H5F_shared_t, ptr %69, i32 0, i32 65
  %71 = getelementptr inbounds nuw %struct.H5F_meta_accum_t, ptr %70, i32 0, i32 0
  %72 = load ptr, ptr %71, align 8, !tbaa !53
  %73 = call ptr @H5FL_blk_free(ptr noundef @H5_meta_accum_blk_free_list, ptr noundef %72)
  %74 = load ptr, ptr %4, align 8, !tbaa !3
  %75 = getelementptr inbounds nuw %struct.H5F_shared_t, ptr %74, i32 0, i32 65
  %76 = getelementptr inbounds nuw %struct.H5F_meta_accum_t, ptr %75, i32 0, i32 0
  store ptr %73, ptr %76, align 8, !tbaa !53
  br label %77

77:                                               ; preds = %68, %62
  %78 = load ptr, ptr %4, align 8, !tbaa !3
  %79 = getelementptr inbounds nuw %struct.H5F_shared_t, ptr %78, i32 0, i32 65
  %80 = getelementptr inbounds nuw %struct.H5F_meta_accum_t, ptr %79, i32 0, i32 2
  store i64 0, ptr %80, align 8, !tbaa !54
  %81 = load ptr, ptr %4, align 8, !tbaa !3
  %82 = getelementptr inbounds nuw %struct.H5F_shared_t, ptr %81, i32 0, i32 65
  %83 = getelementptr inbounds nuw %struct.H5F_meta_accum_t, ptr %82, i32 0, i32 3
  store i64 0, ptr %83, align 8, !tbaa !55
  %84 = load ptr, ptr %4, align 8, !tbaa !3
  %85 = getelementptr inbounds nuw %struct.H5F_shared_t, ptr %84, i32 0, i32 65
  %86 = getelementptr inbounds nuw %struct.H5F_meta_accum_t, ptr %85, i32 0, i32 1
  store i64 -1, ptr %86, align 8, !tbaa !56
  %87 = load ptr, ptr %4, align 8, !tbaa !3
  %88 = getelementptr inbounds nuw %struct.H5F_shared_t, ptr %87, i32 0, i32 65
  %89 = getelementptr inbounds nuw %struct.H5F_meta_accum_t, ptr %88, i32 0, i32 6
  store i8 0, ptr %89, align 8, !tbaa !57
  %90 = load ptr, ptr %4, align 8, !tbaa !3
  %91 = getelementptr inbounds nuw %struct.H5F_shared_t, ptr %90, i32 0, i32 65
  %92 = getelementptr inbounds nuw %struct.H5F_meta_accum_t, ptr %91, i32 0, i32 5
  store i64 0, ptr %92, align 8, !tbaa !58
  br label %93

93:                                               ; preds = %77, %56
  br label %94

94:                                               ; preds = %93, %51
  br label %95

95:                                               ; preds = %94, %17
  %96 = load i32, ptr %7, align 4, !tbaa !8
  call void @llvm.lifetime.end.p0(i64 1, ptr %8) #7
  call void @llvm.lifetime.end.p0(i64 4, ptr %7) #7
  ret i32 %96
}