; Function Attrs: nounwind uwtable
define range(i32 -1, 1) i32 @H5F__accum_reset(ptr noundef captures(none) %0, i1 noundef zeroext %1, i1 noundef zeroext %2) local_unnamed_addr #0 {
  %4 = load i8, ptr @H5F_init_g, align 1, !tbaa !3, !range !7, !noundef !8
  %5 = trunc nuw i8 %4 to i1
  %6 = load i8, ptr @H5_libterm_g, align 1, !range !7
  %7 = trunc nuw i8 %6 to i1
  %8 = xor i1 %7, true
  %9 = select i1 %5, i1 true, i1 %8
  br i1 %9, label %10, label %54, !prof !9

10:                                               ; preds = %3
  br i1 %1, label %11, label %H5F__accum_flush.exit.thread

11:                                               ; preds = %10
  %12 = getelementptr inbounds nuw i8, ptr %0, i64 88
  %13 = load i64, ptr %12, align 8, !tbaa !35
  %14 = and i64 %13, 6
  %.not.i = icmp eq i64 %14, 0
  br i1 %.not.i, label %H5F__accum_flush.exit.thread, label %15

15:                                               ; preds = %11
  %16 = getelementptr inbounds nuw i8, ptr %0, i64 2040
  %17 = load i8, ptr %16, align 8, !tbaa !46, !range !7, !noundef !8
  %18 = trunc nuw i8 %17 to i1
  br i1 %18, label %19, label %H5F__accum_flush.exit.thread

19:                                               ; preds = %15
  %20 = getelementptr inbounds nuw i8, ptr %0, i64 1992
  %21 = load ptr, ptr %0, align 8, !tbaa !10
  %22 = getelementptr inbounds nuw i8, ptr %0, i64 2000
  %23 = load i64, ptr %22, align 8, !tbaa !47
  %24 = getelementptr inbounds nuw i8, ptr %0, i64 2024
  %25 = load i64, ptr %24, align 8, !tbaa !48
  %26 = add i64 %25, %23
  %27 = getelementptr inbounds nuw i8, ptr %0, i64 2032
  %28 = load i64, ptr %27, align 8, !tbaa !49
  %29 = load ptr, ptr %20, align 8, !tbaa !50
  %30 = getelementptr inbounds nuw i8, ptr %29, i64 %25
  %31 = tail call i32 @H5FD_write(ptr noundef %21, i32 noundef 0, i64 noundef %26, i64 noundef %28, ptr noundef %30) #6
  %32 = icmp slt i32 %31, 0
  br i1 %32, label %34, label %33

33:                                               ; preds = %19
  store i8 0, ptr %16, align 8, !tbaa !46
  br label %H5F__accum_flush.exit.thread

34:                                               ; preds = %19
  %35 = load i64, ptr @H5E_IO_g, align 8, !tbaa !41
  %36 = load i64, ptr @H5E_WRITEERROR_g, align 8, !tbaa !41
  %37 = tail call i32 (ptr, ptr, i32, i64, i64, ptr, ...) @H5E_printf_stack(ptr noundef nonnull @.str, ptr noundef nonnull @__func__.H5F__accum_flush, i32 noundef 1022, i64 noundef %35, i64 noundef %36, ptr noundef nonnull @.str.4) #6
  %38 = load i64, ptr @H5E_FILE_g, align 8, !tbaa !41
  %39 = load i64, ptr @H5E_CANTFLUSH_g, align 8, !tbaa !41
  %40 = tail call i32 (ptr, ptr, i32, i64, i64, ptr, ...) @H5E_printf_stack(ptr noundef nonnull @.str, ptr noundef nonnull @__func__.H5F__accum_reset, i32 noundef 1054, i64 noundef %38, i64 noundef %39, ptr noundef nonnull @.str.6) #6
  br i1 %2, label %H5F__accum_flush.exit.thread, label %54

H5F__accum_flush.exit.thread:                     ; preds = %33, %11, %15, %34, %10
  %.1 = phi i32 [ -1, %34 ], [ 0, %10 ], [ 0, %15 ], [ 0, %11 ], [ 0, %33 ]
  %41 = getelementptr inbounds nuw i8, ptr %0, i64 88
  %42 = load i64, ptr %41, align 8, !tbaa !35
  %43 = and i64 %42, 6
  %.not = icmp eq i64 %43, 0
  br i1 %.not, label %54, label %44

44:                                               ; preds = %H5F__accum_flush.exit.thread
  %45 = getelementptr inbounds nuw i8, ptr %0, i64 1992
  %46 = load ptr, ptr %45, align 8, !tbaa !50
  %.not14 = icmp eq ptr %46, null
  br i1 %.not14, label %49, label %47

47:                                               ; preds = %44
  %48 = tail call ptr @H5FL_blk_free(ptr noundef nonnull @H5_meta_accum_blk_free_list, ptr noundef nonnull %46) #6
  store ptr %48, ptr %45, align 8, !tbaa !50
  br label %49

49:                                               ; preds = %47, %44
  %50 = getelementptr inbounds nuw i8, ptr %0, i64 2008
  %51 = getelementptr inbounds nuw i8, ptr %0, i64 2000
  tail call void @llvm.memset.p0.i64(ptr noundef nonnull align 8 dereferenceable(16) %50, i8 0, i64 16, i1 false)
  store i64 -1, ptr %51, align 8, !tbaa !47
  %52 = getelementptr inbounds nuw i8, ptr %0, i64 2040
  store i8 0, ptr %52, align 8, !tbaa !46
  %53 = getelementptr inbounds nuw i8, ptr %0, i64 2032
  store i64 0, ptr %53, align 8, !tbaa !49
  br label %54

54:                                               ; preds = %34, %49, %H5F__accum_flush.exit.thread, %3
  %.0 = phi i32 [ %.1, %49 ], [ %.1, %H5F__accum_flush.exit.thread ], [ 0, %3 ], [ -1, %34 ]
  ret i32 %.0
}